target datalayout = "e-m:e-p270:32:32-p271:32:32-p272:64:64-i64:64-i128:128-f80:128-n8:16:32:64-S128"
target triple = "x86_64-pc-linux-gnu"

%struct.encoding = type { [3 x ptr], [2 x ptr], ptr, ptr, ptr, ptr, ptr, ptr, ptr, ptr, ptr, ptr, i32, i8, i8 }
%struct.INIT_ENCODING = type { %struct.encoding, ptr }

@getEncodingIndex.encodingNames = internal constant [6 x ptr] [ptr @KW_ISO_8859_1, ptr @KW_US_ASCII, ptr @KW_UTF_8, ptr @KW_UTF_16, ptr @KW_UTF_16BE, ptr @KW_UTF_16LE], align 16

; Function Attrs: nounwind uwtable
define internal i32 @streqci(ptr noundef %0, ptr noundef %1) #0 {
  %3 = alloca i32, align 4
  %4 = alloca ptr, align 8
  %5 = alloca ptr, align 8
  %6 = alloca i8, align 1
  %7 = alloca i8, align 1
  %8 = alloca i32, align 4
  store ptr %0, ptr %4, align 8, !tbaa !4
  store ptr %1, ptr %5, align 8, !tbaa !4
  br label %9

9:                                                ; preds = %55, %2
  call void @llvm.lifetime.start.p0(i64 1, ptr %6) #4
  %10 = load ptr, ptr %4, align 8, !tbaa !4
  %11 = getelementptr inbounds nuw i8, ptr %10, i32 1
  store ptr %11, ptr %4, align 8, !tbaa !4
  %12 = load i8, ptr %10, align 1, !tbaa !13
  store i8 %12, ptr %6, align 1, !tbaa !13
  call void @llvm.lifetime.start.p0(i64 1, ptr %7) #4
  %13 = load ptr, ptr %5, align 8, !tbaa !4
  %14 = getelementptr inbounds nuw i8, ptr %13, i32 1
  store ptr %14, ptr %5, align 8, !tbaa !4
  %15 = load i8, ptr %13, align 1, !tbaa !13
  store i8 %15, ptr %7, align 1, !tbaa !13
  %16 = load i8, ptr %6, align 1, !tbaa !13
  %17 = sext i8 %16 to i32
  %18 = icmp sle i32 97, %17
  br i1 %18, label %19, label %28

19:                                               ; preds = %9
  %20 = load i8, ptr %6, align 1, !tbaa !13
  %21 = sext i8 %20 to i32
  %22 = icmp sle i32 %21, 122
  br i1 %22, label %23, label %28

23:                                               ; preds = %19
  %24 = load i8, ptr %6, align 1, !tbaa !13
  %25 = sext i8 %24 to i32
  %26 = add nsw i32 %25, -32
  %27 = trunc i32 %26 to i8
  store i8 %27, ptr %6, align 1, !tbaa !13
  br label %28

28:                                               ; preds = %23, %19, %9
  %29 = load i8, ptr %7, align 1, !tbaa !13
  %30 = sext i8 %29 to i32
  %31 = icmp sle i32 97, %30
  br i1 %31, label %32, label %41

32:                                               ; preds = %28
  %33 = load i8, ptr %7, align 1, !tbaa !13
  %34 = sext i8 %33 to i32
  %35 = icmp sle i32 %34, 122
  br i1 %35, label %36, label %41

36:                                               ; preds = %32
  %37 = load i8, ptr %7, align 1, !tbaa !13
  %38 = sext i8 %37 to i32
  %39 = add nsw i32 %38, -32
  %40 = trunc i32 %39 to i8
  store i8 %40, ptr %7, align 1, !tbaa !13
  br label %41

41:                                               ; preds = %36, %32, %28
  %42 = load i8, ptr %6, align 1, !tbaa !13
  %43 = sext i8 %42 to i32
  %44 = load i8, ptr %7, align 1, !tbaa !13
  %45 = sext i8 %44 to i32
  %46 = icmp ne i32 %43, %45
  br i1 %46, label %47, label %48

47:                                               ; preds = %41
  store i32 0, ptr %3, align 4
  store i32 1, ptr %8, align 4
  br label %53

48:                                               ; preds = %41
  %49 = load i8, ptr %6, align 1, !tbaa !13
  %50 = icmp ne i8 %49, 0
  br i1 %50, label %52, label %51

51:                                               ; preds = %48
  store i32 2, ptr %8, align 4
  br label %53

52:                                               ; preds = %48
  store i32 0, ptr %8, align 4
  br label %53

53:                                               ; preds = %52, %51, %47
  call void @llvm.lifetime.end.p0(i64 1, ptr %7) #4
  call void @llvm.lifetime.end.p0(i64 1, ptr %6) #4
  %54 = load i32, ptr %8, align 4
  switch i32 %54, label %59 [
    i32 0, label %55
    i32 1, label %57
    i32 2, label %56
  ]

55:                                               ; preds = %53
  br label %9

56:                                               ; preds = %53
  store i32 1, ptr %3, align 4
  br label %57

57:                                               ; preds = %56, %53
  %58 = load i32, ptr %3, align 4
  ret i32 %58

59:                                               ; preds = %53
  unreachable
}

; Function Attrs: nounwind uwtable
define internal i32 @getEncodingIndex(ptr noundef %0) #0 {
  %2 = alloca i32, align 4
  %3 = alloca ptr, align 8
  %4 = alloca i32, align 4
  %5 = alloca i32, align 4
  store ptr %0, ptr %3, align 8, !tbaa !4
  call void @llvm.lifetime.start.p0(i64 4, ptr %4) #4
  %6 = load ptr, ptr %3, align 8, !tbaa !4
  %7 = icmp eq ptr %6, null
  br i1 %7, label %8, label %9

8:                                                ; preds = %1
  store i32 6, ptr %2, align 4
  store i32 1, ptr %5, align 4
  br label %28

9:                                                ; preds = %1
  store i32 0, ptr %4, align 4, !tbaa !16
  br label %10

10:                                               ; preds = %24, %9
  %11 = load i32, ptr %4, align 4, !tbaa !16
  %12 = icmp slt i32 %11, 6
  br i1 %12, label %13, label %27

13:                                               ; preds = %10
  %14 = load ptr, ptr %3, align 8, !tbaa !4
  %15 = load i32, ptr %4, align 4, !tbaa !16
  %16 = sext i32 %15 to i64
  %17 = getelementptr inbounds [6 x ptr], ptr @getEncodingIndex.encodingNames, i64 0, i64 %16
  %18 = load ptr, ptr %17, align 8, !tbaa !4
  %19 = call i32 @streqci(ptr noundef %14, ptr noundef %18)
  %20 = icmp ne i32 %19, 0
  br i1 %20, label %21, label %23

21:                                               ; preds = %13
  %22 = load i32, ptr %4, align 4, !tbaa !16
  store i32 %22, ptr %2, align 4
  store i32 1, ptr %5, align 4
  br label %28

23:                                               ; preds = %13
  br label %24

24:                                               ; preds = %23
  %25 = load i32, ptr %4, align 4, !tbaa !16
  %26 = add nsw i32 %25, 1
  store i32 %26, ptr %4, align 4, !tbaa !16
  br label %10, !llvm.loop !56

27:                                               ; preds = %10
  store i32 -1, ptr %2, align 4
  store i32 1, ptr %5, align 4
  br label %28

28:                                               ; preds = %27, %21, %8
  call void @llvm.lifetime.end.p0(i64 4, ptr %4) #4
  %29 = load i32, ptr %2, align 4
  ret i32 %29
}

; Function Attrs: nounwind uwtable
define dso_local i32 @XmlInitEncoding(ptr noundef %0, ptr noundef %1, ptr noundef %2) #0 {
  %4 = alloca i32, align 4
  %5 = alloca ptr, align 8
  %6 = alloca ptr, align 8
  %7 = alloca ptr, align 8
  %8 = alloca i32, align 4
  %9 = alloca i32, align 4
  store ptr %0, ptr %5, align 8, !tbaa !22
  store ptr %1, ptr %6, align 8, !tbaa !50
  store ptr %2, ptr %7, align 8, !tbaa !4
  call void @llvm.lifetime.start.p0(i64 4, ptr %8) #4
  %10 = load ptr, ptr %7, align 8, !tbaa !4
  %11 = call i32 @getEncodingIndex(ptr noundef %10)
  store i32 %11, ptr %8, align 4, !tbaa !16
  %12 = load i32, ptr %8, align 4, !tbaa !16
  %13 = icmp eq i32 %12, -1
  br i1 %13, label %14, label %15

14:                                               ; preds = %3
  store i32 0, ptr %4, align 4
  store i32 1, ptr %9, align 4
  br label %38

15:                                               ; preds = %3
  %16 = load i32, ptr %8, align 4, !tbaa !16
  %17 = trunc i32 %16 to i8
  %18 = load ptr, ptr %5, align 8, !tbaa !22
  %19 = getelementptr inbounds nuw %struct.INIT_ENCODING, ptr %18, i32 0, i32 0
  %20 = getelementptr inbounds nuw %struct.encoding, ptr %19, i32 0, i32 14
  store i8 %17, ptr %20, align 1, !tbaa !52
  %21 = load ptr, ptr %5, align 8, !tbaa !22
  %22 = getelementptr inbounds nuw %struct.INIT_ENCODING, ptr %21, i32 0, i32 0
  %23 = getelementptr inbounds nuw %struct.encoding, ptr %22, i32 0, i32 0
  %24 = getelementptr inbounds [3 x ptr], ptr %23, i64 0, i64 0
  store ptr @initScanProlog, ptr %24, align 8, !tbaa !22
  %25 = load ptr, ptr %5, align 8, !tbaa !22
  %26 = getelementptr inbounds nuw %struct.INIT_ENCODING, ptr %25, i32 0, i32 0
  %27 = getelementptr inbounds nuw %struct.encoding, ptr %26, i32 0, i32 0
  %28 = getelementptr inbounds [3 x ptr], ptr %27, i64 0, i64 1
  store ptr @initScanContent, ptr %28, align 8, !tbaa !22
  %29 = load ptr, ptr %5, align 8, !tbaa !22
  %30 = getelementptr inbounds nuw %struct.INIT_ENCODING, ptr %29, i32 0, i32 0
  %31 = getelementptr inbounds nuw %struct.encoding, ptr %30, i32 0, i32 8
  store ptr @initUpdatePosition, ptr %31, align 8, !tbaa !54
  %32 = load ptr, ptr %6, align 8, !tbaa !50
  %33 = load ptr, ptr %5, align 8, !tbaa !22
  %34 = getelementptr inbounds nuw %struct.INIT_ENCODING, ptr %33, i32 0, i32 1
  store ptr %32, ptr %34, align 8, !tbaa !55
  %35 = load ptr, ptr %5, align 8, !tbaa !22
  %36 = getelementptr inbounds nuw %struct.INIT_ENCODING, ptr %35, i32 0, i32 0
  %37 = load ptr, ptr %6, align 8, !tbaa !50
  store ptr %36, ptr %37, align 8, !tbaa !45
  store i32 1, ptr %4, align 4
  store i32 1, ptr %9, align 4
  br label %38

38:                                               ; preds = %15, %14
  call void @llvm.lifetime.end.p0(i64 4, ptr %8) #4
  %39 = load i32, ptr %4, align 4
  ret i32 %39
}