; Function Attrs: nofree norecurse nosync nounwind memory(read, argmem: readwrite, inaccessiblemem: none) uwtable
define dso_local range(i32 0, 2) i32 @XmlInitEncoding(ptr noundef %0, ptr noundef %1, ptr noundef readonly %2) local_unnamed_addr #0 {
  %4 = icmp eq ptr %2, null
  br i1 %4, label %getEncodingIndex.exit.thread13, label %.preheader.i

.preheader.i:                                     ; preds = %3, %14
  %indvars.iv.i = phi i64 [ %indvars.iv.next.i, %14 ], [ 0, %3 ]
  %5 = getelementptr inbounds nuw [6 x ptr], ptr @getEncodingIndex.encodingNames, i64 0, i64 %indvars.iv.i
  %6 = load ptr, ptr %5, align 8, !tbaa !4
  br label %7

7:                                                ; preds = %7, %.preheader.i
  %.020.i.i = phi ptr [ %2, %.preheader.i ], [ %8, %7 ]
  %.019.i.i = phi ptr [ %6, %.preheader.i ], [ %10, %7 ]
  %8 = getelementptr inbounds nuw i8, ptr %.020.i.i, i64 1
  %9 = load i8, ptr %.020.i.i, align 1, !tbaa !9
  %10 = getelementptr inbounds nuw i8, ptr %.019.i.i, i64 1
  %11 = load i8, ptr %.019.i.i, align 1, !tbaa !9
  %12 = add i8 %9, -97
  %or.cond.i.i = icmp ult i8 %12, 26
  %narrow.i.i = add nsw i8 %9, -32
  %spec.select.i.i = select i1 %or.cond.i.i, i8 %narrow.i.i, i8 %9
  %13 = add i8 %11, -97
  %or.cond5.i.i = icmp ult i8 %13, 26
  %narrow24.i.i = add nsw i8 %11, -32
  %.017.i.i = select i1 %or.cond5.i.i, i8 %narrow24.i.i, i8 %11
  %.not.i.i = icmp eq i8 %spec.select.i.i, %.017.i.i
  %.not25.i.i = icmp eq i8 %spec.select.i.i, 0
  %..i.i = select i1 %.not25.i.i, i32 2, i32 0
  %.0.i.i = select i1 %.not.i.i, i32 %..i.i, i32 1
  switch i32 %.0.i.i, label %default.unreachable [
    i32 0, label %7
    i32 1, label %14
    i32 2, label %getEncodingIndex.exit
  ]

default.unreachable:                              ; preds = %7
  unreachable

14:                                               ; preds = %7
  %indvars.iv.next.i = add nuw nsw i64 %indvars.iv.i, 1
  %exitcond.not.i = icmp eq i64 %indvars.iv.next.i, 6
  br i1 %exitcond.not.i, label %getEncodingIndex.exit.thread, label %.preheader.i, !llvm.loop !37

getEncodingIndex.exit:                            ; preds = %7
  %15 = trunc i64 %indvars.iv.i to i8
  br label %getEncodingIndex.exit.thread13

getEncodingIndex.exit.thread13:                   ; preds = %getEncodingIndex.exit, %3
  %.06.i15 = phi i8 [ %15, %getEncodingIndex.exit ], [ 6, %3 ]
  %16 = getelementptr inbounds nuw i8, ptr %0, i64 125
  store i8 %.06.i15, ptr %16, align 1, !tbaa !38
  store ptr @initScanProlog, ptr %0, align 8, !tbaa !41
  %17 = getelementptr inbounds nuw i8, ptr %0, i64 8
  store ptr @initScanContent, ptr %17, align 8, !tbaa !41
  %18 = getelementptr inbounds nuw i8, ptr %0, i64 88
  store ptr @initUpdatePosition, ptr %18, align 8, !tbaa !42
  %19 = getelementptr inbounds nuw i8, ptr %0, i64 128
  store ptr %1, ptr %19, align 8, !tbaa !43
  store ptr %0, ptr %1, align 8, !tbaa !44
  br label %getEncodingIndex.exit.thread

getEncodingIndex.exit.thread:                     ; preds = %14, %getEncodingIndex.exit.thread13
  %.0 = phi i32 [ 1, %getEncodingIndex.exit.thread13 ], [ 0, %14 ]
  ret i32 %.0
}